target datalayout = "e-m:e-p270:32:32-p271:32:32-p272:64:64-i64:64-i128:128-f80:128-n8:16:32:64-S128"
target triple = "x86_64-pc-linux-gnu"

%struct._zval_struct = type { %union._zend_value, %union.anon, %union.anon.2 }
%union._zend_value = type { i64 }
%union.anon = type { i32 }
%union.anon.2 = type { i32 }
%struct._zend_refcounted_h = type { i32, %union.anon.3 }
%union.anon.3 = type { i32 }
%struct._dom_object = type { ptr, ptr, ptr, %struct._zend_object }
%struct._zend_object = type { %struct._zend_refcounted_h, i32, ptr, ptr, ptr, [1 x %struct._zval_struct] }
%struct._libxml_doc_props = type { ptr, i8, i8, i8, i8, i8, i8, i8 }

; Function Attrs: nounwind uwtable
define hidden i32 @dom_document_strict_error_checking_write(ptr noundef %0, ptr noundef %1) #0 {
  %3 = alloca ptr, align 8
  %4 = alloca ptr, align 8
  %5 = alloca ptr, align 8
  store ptr %0, ptr %3, align 8
  store ptr %1, ptr %4, align 8
  %6 = load ptr, ptr %3, align 8
  %7 = getelementptr inbounds %struct._dom_object, ptr %6, i32 0, i32 1
  %8 = load ptr, ptr %7, align 8
  %9 = icmp ne ptr %8, null
  br i1 %9, label %10, label %21

10:                                               ; preds = %2
  %11 = load ptr, ptr %3, align 8
  %12 = getelementptr inbounds %struct._dom_object, ptr %11, i32 0, i32 1
  %13 = load ptr, ptr %12, align 8
  %14 = call ptr @dom_get_doc_props(ptr noundef %13)
  store ptr %14, ptr %5, align 8
  %15 = load ptr, ptr %4, align 8
  %16 = call i32 @zend_is_true(ptr noundef %15)
  %17 = icmp ne i32 %16, 0
  %18 = load ptr, ptr %5, align 8
  %19 = getelementptr inbounds %struct._libxml_doc_props, ptr %18, i32 0, i32 6
  %20 = zext i1 %17 to i8
  store i8 %20, ptr %19, align 1
  br label %21

21:                                               ; preds = %10, %2
  ret i32 0
}