; Function Attrs: nounwind uwtable
define hidden noundef i32 @dom_document_strict_error_checking_write(ptr nocapture noundef readonly %0, ptr noundef %1) local_unnamed_addr #0 {
  %3 = getelementptr inbounds i8, ptr %0, i64 8
  %4 = load ptr, ptr %3, align 8
  %.not = icmp eq ptr %4, null
  br i1 %.not, label %11, label %5

5:                                                ; preds = %2
  %6 = tail call ptr @dom_get_doc_props(ptr noundef nonnull %4) #10
  %7 = tail call i32 @zend_is_true(ptr noundef %1) #10
  %8 = icmp ne i32 %7, 0
  %9 = getelementptr inbounds i8, ptr %6, i64 13
  %10 = zext i1 %8 to i8
  store i8 %10, ptr %9, align 1
  br label %11

11:                                               ; preds = %5, %2
  ret i32 0
}